; Function Attrs: mustprogress ssp uwtable
define hidden void @_ZN6open3d1t9pipelines29pybind_pipelines_declarationsERN8pybind117module_E(ptr noundef nonnull align 8 dereferenceable(8) %0) local_unnamed_addr #5 personality ptr @__gxx_personality_v0 {
  %2 = alloca %"class.pybind11::module_", align 8
  call void @llvm.lifetime.start.p0(i64 8, ptr nonnull %2) #28
  call void @_ZN8pybind117module_13def_submoduleEPKcS2_(ptr dead_on_unwind nonnull writable sret(%"class.pybind11::module_") align 8 %2, ptr noundef nonnull align 8 dereferenceable(8) %0, ptr noundef nonnull @.str, ptr noundef nonnull @.str.3)
  invoke void @_ZN6open3d1t9pipelines8odometry28pybind_odometry_declarationsERN8pybind117module_E(ptr noundef nonnull align 8 dereferenceable(8) %2)
          to label %3 unwind label %18

3:                                                ; preds = %1
  invoke void @_ZN6open3d1t9pipelines12registration32pybind_registration_declarationsERN8pybind117module_E(ptr noundef nonnull align 8 dereferenceable(8) %2)
          to label %4 unwind label %18

4:                                                ; preds = %3
  invoke void @_ZN6open3d1t9pipelines4slac24pybind_slac_declarationsERN8pybind117module_E(ptr noundef nonnull align 8 dereferenceable(8) %2)
          to label %5 unwind label %18

5:                                                ; preds = %4
  invoke void @_ZN6open3d1t9pipelines4slam24pybind_slam_declarationsERN8pybind117module_E(ptr noundef nonnull align 8 dereferenceable(8) %2)
          to label %6 unwind label %18

6:                                                ; preds = %5
  %7 = load ptr, ptr %2, align 8, !tbaa !112
  %.not.i.i.i = icmp eq ptr %7, null
  br i1 %.not.i.i.i, label %_ZN8pybind116objectD2Ev.exit, label %8

8:                                                ; preds = %6
  %9 = load i64, ptr %7, align 8, !tbaa !111
  %10 = and i64 %9, 2147483648
  %.not2.i.i.i = icmp eq i64 %10, 0
  br i1 %.not2.i.i.i, label %11, label %_ZN8pybind116objectD2Ev.exit

11:                                               ; preds = %8
  %12 = add nsw i64 %9, -1
  store i64 %12, ptr %7, align 8, !tbaa !111
  %13 = icmp eq i64 %12, 0
  br i1 %13, label %14, label %_ZN8pybind116objectD2Ev.exit

14:                                               ; preds = %11
  invoke void @_Py_Dealloc(ptr noundef nonnull %7)
          to label %_ZN8pybind116objectD2Ev.exit unwind label %15

15:                                               ; preds = %14
  %16 = landingpad { ptr, i32 }
          catch ptr null
  %17 = extractvalue { ptr, i32 } %16, 0
  call void @__clang_call_terminate(ptr %17) #29
  unreachable

_ZN8pybind116objectD2Ev.exit:                     ; preds = %6, %8, %11, %14
  call void @llvm.lifetime.end.p0(i64 8, ptr nonnull %2) #28
  ret void

18:                                               ; preds = %5, %4, %3, %1
  %19 = landingpad { ptr, i32 }
          cleanup
  call void @_ZN8pybind116objectD2Ev(ptr noundef nonnull align 8 dereferenceable(8) %2) #28
  call void @llvm.lifetime.end.p0(i64 8, ptr nonnull %2) #28
  resume { ptr, i32 } %19
}